; Function Attrs: mustprogress uwtable
define { i64, ptr } @_ZN9grpc_core29AwsExternalAccountCredentials4TypeEv() local_unnamed_addr #3 align 2 personality ptr @__gxx_personality_v0 {
  %1 = load atomic i8, ptr @_ZGVZN9grpc_core29AwsExternalAccountCredentials4TypeEvE8kFactory acquire, align 8
  %2 = icmp eq i8 %1, 0
  br i1 %2, label %3, label %7, !prof !256

3:                                                ; preds = %0
  %4 = tail call i32 @__cxa_guard_acquire(ptr nonnull @_ZGVZN9grpc_core29AwsExternalAccountCredentials4TypeEvE8kFactory) #34
  %.not = icmp eq i32 %4, 0
  br i1 %.not, label %7, label %5

5:                                                ; preds = %3
  invoke void @_ZN9grpc_core14UniqueTypeName7FactoryC2ESt17basic_string_viewIcSt11char_traitsIcEE(ptr noundef nonnull align 8 dereferenceable(8) @_ZZN9grpc_core29AwsExternalAccountCredentials4TypeEvE8kFactory, i64 29, ptr nonnull @.str.46)
          to label %6 unwind label %12

6:                                                ; preds = %5
  tail call void @__cxa_guard_release(ptr nonnull @_ZGVZN9grpc_core29AwsExternalAccountCredentials4TypeEvE8kFactory) #34
  br label %7

7:                                                ; preds = %6, %3, %0
  %8 = load ptr, ptr @_ZZN9grpc_core29AwsExternalAccountCredentials4TypeEvE8kFactory, align 8, !tbaa !257
  %9 = load ptr, ptr %8, align 8, !tbaa !56
  %10 = getelementptr inbounds nuw i8, ptr %8, i64 8
  %11 = load i64, ptr %10, align 8, !tbaa !38
  %.fca.0.insert.i.i = insertvalue { i64, ptr } poison, i64 %11, 0
  %.fca.1.insert.i.i = insertvalue { i64, ptr } %.fca.0.insert.i.i, ptr %9, 1
  ret { i64, ptr } %.fca.1.insert.i.i

12:                                               ; preds = %5
  %13 = landingpad { ptr, i32 }
          cleanup
  tail call void @__cxa_guard_abort(ptr nonnull @_ZGVZN9grpc_core29AwsExternalAccountCredentials4TypeEvE8kFactory) #34
  resume { ptr, i32 } %13
}